target datalayout = "e-m:e-p270:32:32-p271:32:32-p272:64:64-i64:64-i128:128-f80:128-n8:16:32:64-S128"
target triple = "x86_64-unknown-linux-gnu"

%struct.QTailQLink = type { ptr, ptr }
%struct.AHCIState = type { ptr, ptr, %struct.AHCIControlRegs, %struct.MemoryRegion, %struct.MemoryRegion, i32, i32, i32, ptr, ptr }
%struct.AHCIControlRegs = type { i32, i32, i32, i32, i32 }
%struct.MemoryRegion = type { %struct.Object, i8, i8, i8, i8, i8, i8, i8, i8, i8, i8, ptr, ptr, ptr, ptr, ptr, ptr, i32, i128, i64, ptr, i64, i8, i8, i8, i8, i8, ptr, i64, i32, %union.anon, %union.anon.0, %union.anon.1, ptr, i32, ptr, ptr, i8 }
%struct.Object = type { ptr, ptr, ptr, i32, ptr }
%union.anon = type { %struct.QTailQLink }
%union.anon.0 = type { %struct.QTailQLink }
%union.anon.1 = type { %struct.QTailQLink }
%struct.AHCIDevice = type { %struct.IDEDMA, %struct.IDEBus, i32, i32, i32, %struct.AHCIPortRegs, ptr, ptr, ptr, ptr, i8, i32, i8, ptr, [32 x %struct.NCQTransferState], %struct.MemReentrancyGuard }
%struct.IDEDMA = type { ptr, %struct.QEMUIOVector, ptr }
%struct.QEMUIOVector = type { ptr, i32, %union.anon.3 }
%union.anon.3 = type { %struct.anon.4 }
%struct.anon.4 = type { i32, %struct.iovec }
%struct.iovec = type { ptr, i64 }
%struct.IDEBus = type { %struct.BusState, ptr, ptr, [2 x %struct.IDEState], ptr, i32, i32, ptr, i8, i8, ptr, i32, i8, i64, i32, %struct.PortioList, %struct.PortioList, ptr }
%struct.BusState = type { %struct.Object, ptr, ptr, ptr, i32, i8, i8, i32, %union.BusChildHead, %struct.BusStateEntry, %struct.ResettableState }
%union.BusChildHead = type { %struct.QTailQLink }
%struct.BusStateEntry = type { ptr, ptr }
%struct.ResettableState = type { i32, i8, i8 }
%struct.IDEState = type { ptr, i8, i32, i32, i32, i32, i32, i32, i32, i64, i32, i32, [512 x i8], i32, [21 x i8], [41 x i8], i64, i8, i8, i32, i8, i8, i8, i8, i8, i8, i8, i8, i8, i8, i8, i8, i8, ptr, [9 x i8], %struct.unreported_events, i8, i8, i8, i8, i8, i32, i32, i32, i32, i32, i32, %struct.BlockAcctCookie, ptr, %struct.QEMUIOVector, %struct.anon.6, i64, i32, %struct.QEMUSGList, i32, ptr, ptr, ptr, ptr, i32, i32, i32, i8, ptr, i32, i8, i32, ptr, i32, i32, i8, i8, i32, i8, ptr, i32 }
%struct.unreported_events = type { i8, i8 }
%struct.BlockAcctCookie = type { i64, i64, i32 }
%struct.anon.6 = type { ptr }
%struct.QEMUSGList = type { ptr, i32, i32, i64, ptr, ptr }
%struct.PortioList = type { ptr, ptr, ptr, i32, ptr, ptr, ptr, i8 }
%struct.AHCIPortRegs = type { i32, i32, i32, i32, i32, i32, i32, i32, i32, i32, i32, i32, i32, i32, i32, i32 }
%struct.NCQTransferState = type { ptr, ptr, ptr, %struct.QEMUSGList, %struct.BlockAcctCookie, i32, i64, i8, i8, i8, i8, i8 }
%struct.MemReentrancyGuard = type { i8 }

; Function Attrs: nounwind sspstrong uwtable
define dso_local void @ahci_uninit(ptr noundef %s) #0 {
entry:
  %s.addr = alloca ptr, align 8
  %i = alloca i32, align 4
  %j = alloca i32, align 4
  %ad = alloca ptr, align 8
  store ptr %s, ptr %s.addr, align 8
  store i32 0, ptr %i, align 4
  br label %for.cond

for.cond:                                         ; preds = %for.inc7, %entry
  %0 = load i32, ptr %i, align 4
  %1 = load ptr, ptr %s.addr, align 8
  %ports = getelementptr inbounds %struct.AHCIState, ptr %1, i32 0, i32 7
  %2 = load i32, ptr %ports, align 8
  %cmp = icmp slt i32 %0, %2
  br i1 %cmp, label %for.body, label %for.end9

for.body:                                         ; preds = %for.cond
  %3 = load ptr, ptr %s.addr, align 8
  %dev = getelementptr inbounds %struct.AHCIState, ptr %3, i32 0, i32 1
  %4 = load ptr, ptr %dev, align 8
  %5 = load i32, ptr %i, align 4
  %idxprom = sext i32 %5 to i64
  %arrayidx = getelementptr %struct.AHCIDevice, ptr %4, i64 %idxprom
  store ptr %arrayidx, ptr %ad, align 8
  store i32 0, ptr %j, align 4
  br label %for.cond1

for.cond1:                                        ; preds = %for.inc, %for.body
  %6 = load i32, ptr %j, align 4
  %cmp2 = icmp slt i32 %6, 2
  br i1 %cmp2, label %for.body3, label %for.end

for.body3:                                        ; preds = %for.cond1
  %7 = load ptr, ptr %ad, align 8
  %port = getelementptr inbounds %struct.AHCIDevice, ptr %7, i32 0, i32 1
  %ifs = getelementptr inbounds %struct.IDEBus, ptr %port, i32 0, i32 3
  %8 = load i32, ptr %j, align 4
  %idxprom4 = sext i32 %8 to i64
  %arrayidx5 = getelementptr [2 x %struct.IDEState], ptr %ifs, i64 0, i64 %idxprom4
  call void @ide_exit(ptr noundef %arrayidx5)
  br label %for.inc

for.inc:                                          ; preds = %for.body3
  %9 = load i32, ptr %j, align 4
  %inc = add i32 %9, 1
  store i32 %inc, ptr %j, align 4
  br label %for.cond1, !llvm.loop !8

for.end:                                          ; preds = %for.cond1
  %10 = load ptr, ptr %ad, align 8
  %port6 = getelementptr inbounds %struct.AHCIDevice, ptr %10, i32 0, i32 1
  call void @object_unparent(ptr noundef %port6)
  br label %for.inc7

for.inc7:                                         ; preds = %for.end
  %11 = load i32, ptr %i, align 4
  %inc8 = add i32 %11, 1
  store i32 %inc8, ptr %i, align 4
  br label %for.cond, !llvm.loop !9

for.end9:                                         ; preds = %for.cond
  %12 = load ptr, ptr %s.addr, align 8
  %dev10 = getelementptr inbounds %struct.AHCIState, ptr %12, i32 0, i32 1
  %13 = load ptr, ptr %dev10, align 8
  call void @g_free(ptr noundef %13)
  ret void
}