; Function Attrs: nounwind sspstrong uwtable
define dso_local void @ahci_uninit(ptr noundef readonly captures(none) %s) local_unnamed_addr #0 {
entry:
  %ports = getelementptr inbounds nuw i8, ptr %s, i64 600
  %0 = load i32, ptr %ports, align 8
  %cmp9 = icmp sgt i32 %0, 0
  br i1 %cmp9, label %for.body.lr.ph, label %for.end9

for.body.lr.ph:                                   ; preds = %entry
  %dev = getelementptr inbounds nuw i8, ptr %s, i64 8
  br label %for.body

for.body:                                         ; preds = %for.body.lr.ph, %for.body
  %indvars.iv12 = phi i64 [ 0, %for.body.lr.ph ], [ %indvars.iv.next13, %for.body ]
  %1 = load ptr, ptr %dev, align 8
  %arrayidx = getelementptr %struct.AHCIDevice, ptr %1, i64 %indvars.iv12
  %ifs = getelementptr inbounds nuw i8, ptr %arrayidx, i64 192
  tail call void @ide_exit(ptr noundef nonnull %ifs) #12
  %arrayidx5.c = getelementptr i8, ptr %arrayidx, i64 1176
  tail call void @ide_exit(ptr noundef %arrayidx5.c) #12
  %port6 = getelementptr inbounds nuw i8, ptr %arrayidx, i64 56
  tail call void @object_unparent(ptr noundef nonnull %port6) #12
  %indvars.iv.next13 = add nuw nsw i64 %indvars.iv12, 1
  %2 = load i32, ptr %ports, align 8
  %3 = sext i32 %2 to i64
  %cmp = icmp slt i64 %indvars.iv.next13, %3
  br i1 %cmp, label %for.body, label %for.end9, !llvm.loop !8

for.end9:                                         ; preds = %for.body, %entry
  %dev10 = getelementptr inbounds nuw i8, ptr %s, i64 8
  %4 = load ptr, ptr %dev10, align 8
  tail call void @g_free(ptr noundef %4) #12
  ret void
}